target datalayout = "e-m:e-p270:32:32-p271:32:32-p272:64:64-i64:64-i128:128-f80:128-n8:16:32:64-S128"
target triple = "x86_64-pc-linux-gnu"

%struct._lv_fpoint_t = type { float, float }
%struct._lv_matrix_t = type { [3 x [3 x float]] }
%struct._lv_vector_path_t = type { i32, %struct._lv_array_t, %struct._lv_array_t }
%struct._lv_array_t = type { ptr, i32, i32, i32, i8 }

; Function Attrs: nounwind uwtable
define void @lv_matrix_transform_point(ptr noundef %0, ptr noundef %1) #0 {
  %3 = alloca ptr, align 8
  %4 = alloca ptr, align 8
  %5 = alloca float, align 4
  %6 = alloca float, align 4
  store ptr %0, ptr %3, align 8, !tbaa !3
  store ptr %1, ptr %4, align 8, !tbaa !3
  call void @llvm.lifetime.start.p0(i64 4, ptr %5) #7
  %7 = load ptr, ptr %4, align 8, !tbaa !3
  %8 = getelementptr inbounds nuw %struct._lv_fpoint_t, ptr %7, i32 0, i32 0
  %9 = load float, ptr %8, align 4, !tbaa !7
  store float %9, ptr %5, align 4, !tbaa !10
  call void @llvm.lifetime.start.p0(i64 4, ptr %6) #7
  %10 = load ptr, ptr %4, align 8, !tbaa !3
  %11 = getelementptr inbounds nuw %struct._lv_fpoint_t, ptr %10, i32 0, i32 1
  %12 = load float, ptr %11, align 4, !tbaa !11
  store float %12, ptr %6, align 4, !tbaa !10
  %13 = load float, ptr %5, align 4, !tbaa !10
  %14 = load ptr, ptr %3, align 8, !tbaa !3
  %15 = getelementptr inbounds nuw %struct._lv_matrix_t, ptr %14, i32 0, i32 0
  %16 = getelementptr inbounds [3 x [3 x float]], ptr %15, i64 0, i64 0
  %17 = getelementptr inbounds [3 x float], ptr %16, i64 0, i64 0
  %18 = load float, ptr %17, align 4, !tbaa !10
  %19 = load float, ptr %6, align 4, !tbaa !10
  %20 = load ptr, ptr %3, align 8, !tbaa !3
  %21 = getelementptr inbounds nuw %struct._lv_matrix_t, ptr %20, i32 0, i32 0
  %22 = getelementptr inbounds [3 x [3 x float]], ptr %21, i64 0, i64 1
  %23 = getelementptr inbounds [3 x float], ptr %22, i64 0, i64 0
  %24 = load float, ptr %23, align 4, !tbaa !10
  %25 = fmul float %19, %24
  %26 = call float @llvm.fmuladd.f32(float %13, float %18, float %25)
  %27 = load ptr, ptr %3, align 8, !tbaa !3
  %28 = getelementptr inbounds nuw %struct._lv_matrix_t, ptr %27, i32 0, i32 0
  %29 = getelementptr inbounds [3 x [3 x float]], ptr %28, i64 0, i64 0
  %30 = getelementptr inbounds [3 x float], ptr %29, i64 0, i64 2
  %31 = load float, ptr %30, align 4, !tbaa !10
  %32 = fadd float %26, %31
  %33 = load ptr, ptr %4, align 8, !tbaa !3
  %34 = getelementptr inbounds nuw %struct._lv_fpoint_t, ptr %33, i32 0, i32 0
  store float %32, ptr %34, align 4, !tbaa !7
  %35 = load float, ptr %5, align 4, !tbaa !10
  %36 = load ptr, ptr %3, align 8, !tbaa !3
  %37 = getelementptr inbounds nuw %struct._lv_matrix_t, ptr %36, i32 0, i32 0
  %38 = getelementptr inbounds [3 x [3 x float]], ptr %37, i64 0, i64 0
  %39 = getelementptr inbounds [3 x float], ptr %38, i64 0, i64 1
  %40 = load float, ptr %39, align 4, !tbaa !10
  %41 = load float, ptr %6, align 4, !tbaa !10
  %42 = load ptr, ptr %3, align 8, !tbaa !3
  %43 = getelementptr inbounds nuw %struct._lv_matrix_t, ptr %42, i32 0, i32 0
  %44 = getelementptr inbounds [3 x [3 x float]], ptr %43, i64 0, i64 1
  %45 = getelementptr inbounds [3 x float], ptr %44, i64 0, i64 1
  %46 = load float, ptr %45, align 4, !tbaa !10
  %47 = fmul float %41, %46
  %48 = call float @llvm.fmuladd.f32(float %35, float %40, float %47)
  %49 = load ptr, ptr %3, align 8, !tbaa !3
  %50 = getelementptr inbounds nuw %struct._lv_matrix_t, ptr %49, i32 0, i32 0
  %51 = getelementptr inbounds [3 x [3 x float]], ptr %50, i64 0, i64 1
  %52 = getelementptr inbounds [3 x float], ptr %51, i64 0, i64 2
  %53 = load float, ptr %52, align 4, !tbaa !10
  %54 = fadd float %48, %53
  %55 = load ptr, ptr %4, align 8, !tbaa !3
  %56 = getelementptr inbounds nuw %struct._lv_fpoint_t, ptr %55, i32 0, i32 1
  store float %54, ptr %56, align 4, !tbaa !11
  call void @llvm.lifetime.end.p0(i64 4, ptr %6) #7
  call void @llvm.lifetime.end.p0(i64 4, ptr %5) #7
  ret void
}

; Function Attrs: nounwind uwtable
define void @lv_matrix_transform_path(ptr noundef %0, ptr noundef %1) #0 {
  %3 = alloca ptr, align 8
  %4 = alloca ptr, align 8
  %5 = alloca ptr, align 8
  %6 = alloca i32, align 4
  %7 = alloca i32, align 4
  store ptr %0, ptr %3, align 8, !tbaa !3
  store ptr %1, ptr %4, align 8, !tbaa !3
  call void @llvm.lifetime.start.p0(i64 8, ptr %5) #7
  %8 = load ptr, ptr %4, align 8, !tbaa !3
  %9 = getelementptr inbounds nuw %struct._lv_vector_path_t, ptr %8, i32 0, i32 2
  %10 = call ptr @lv_array_front(ptr noundef %9)
  store ptr %10, ptr %5, align 8, !tbaa !3
  call void @llvm.lifetime.start.p0(i64 4, ptr %6) #7
  %11 = load ptr, ptr %4, align 8, !tbaa !3
  %12 = getelementptr inbounds nuw %struct._lv_vector_path_t, ptr %11, i32 0, i32 2
  %13 = call i32 @lv_array_size(ptr noundef %12)
  store i32 %13, ptr %6, align 4, !tbaa !12
  call void @llvm.lifetime.start.p0(i64 4, ptr %7) #7
  store i32 0, ptr %7, align 4, !tbaa !12
  br label %14

14:                                               ; preds = %25, %2
  %15 = load i32, ptr %7, align 4, !tbaa !12
  %16 = load i32, ptr %6, align 4, !tbaa !12
  %17 = icmp ult i32 %15, %16
  br i1 %17, label %19, label %18

18:                                               ; preds = %14
  call void @llvm.lifetime.end.p0(i64 4, ptr %7) #7
  br label %28

19:                                               ; preds = %14
  %20 = load ptr, ptr %3, align 8, !tbaa !3
  %21 = load ptr, ptr %5, align 8, !tbaa !3
  %22 = load i32, ptr %7, align 4, !tbaa !12
  %23 = zext i32 %22 to i64
  %24 = getelementptr inbounds nuw %struct._lv_fpoint_t, ptr %21, i64 %23
  call void @lv_matrix_transform_point(ptr noundef %20, ptr noundef %24)
  br label %25

25:                                               ; preds = %19
  %26 = load i32, ptr %7, align 4, !tbaa !12
  %27 = add i32 %26, 1
  store i32 %27, ptr %7, align 4, !tbaa !12
  br label %14, !llvm.loop !14

28:                                               ; preds = %18
  call void @llvm.lifetime.end.p0(i64 4, ptr %6) #7
  call void @llvm.lifetime.end.p0(i64 8, ptr %5) #7
  ret void
}