; Function Attrs: nounwind uwtable
define void @lv_matrix_transform_path(ptr nocapture noundef readonly %0, ptr noundef %1) local_unnamed_addr #3 {
  %3 = getelementptr inbounds nuw i8, ptr %1, i64 32
  %4 = tail call ptr @lv_array_front(ptr noundef nonnull %3) #9
  %5 = tail call i32 @lv_array_size(ptr noundef nonnull %3) #9
  %.not = icmp eq i32 %5, 0
  br i1 %.not, label %._crit_edge, label %.lr.ph

.lr.ph:                                           ; preds = %2
  %6 = getelementptr inbounds i8, ptr %0, i64 12
  %7 = getelementptr inbounds i8, ptr %0, i64 8
  %8 = getelementptr inbounds i8, ptr %0, i64 4
  %9 = getelementptr inbounds i8, ptr %0, i64 16
  %10 = getelementptr inbounds i8, ptr %0, i64 20
  %wide.trip.count = zext i32 %5 to i64
  br label %11

._crit_edge:                                      ; preds = %11, %2
  ret void

11:                                               ; preds = %.lr.ph, %11
  %indvars.iv = phi i64 [ 0, %.lr.ph ], [ %indvars.iv.next, %11 ]
  %12 = getelementptr inbounds nuw %struct._lv_fpoint_t, ptr %4, i64 %indvars.iv
  %13 = load float, ptr %12, align 4, !tbaa !3
  %14 = getelementptr inbounds nuw i8, ptr %12, i64 4
  %15 = load float, ptr %14, align 4, !tbaa !8
  %16 = load float, ptr %0, align 4, !tbaa !9
  %17 = load float, ptr %6, align 4, !tbaa !9
  %18 = fmul float %15, %17
  %19 = tail call float @llvm.fmuladd.f32(float %13, float %16, float %18)
  %20 = load float, ptr %7, align 4, !tbaa !9
  %21 = fadd float %20, %19
  store float %21, ptr %12, align 4, !tbaa !3
  %22 = load float, ptr %8, align 4, !tbaa !9
  %23 = load float, ptr %9, align 4, !tbaa !9
  %24 = fmul float %15, %23
  %25 = tail call float @llvm.fmuladd.f32(float %13, float %22, float %24)
  %26 = load float, ptr %10, align 4, !tbaa !9
  %27 = fadd float %26, %25
  store float %27, ptr %14, align 4, !tbaa !8
  %indvars.iv.next = add nuw nsw i64 %indvars.iv, 1
  %exitcond.not = icmp eq i64 %indvars.iv.next, %wide.trip.count
  br i1 %exitcond.not, label %._crit_edge, label %11, !llvm.loop !10
}